; Function Attrs: mustprogress nofree norecurse nounwind memory(argmem: readwrite, inaccessiblemem: readwrite) uwtable
define hidden void @_ZN14TaskTerminator15reset_for_reuseEj(ptr noundef nonnull align 8 dereferenceable(384) %0, i32 noundef %1) local_unnamed_addr #4 align 2 {
  %3 = getelementptr inbounds i8, ptr %0, i64 144
  %4 = load volatile i32, ptr %3, align 8
  %.not.i = icmp eq i32 %4, 0
  br i1 %.not.i, label %_ZN14TaskTerminator15reset_for_reuseEv.exit, label %5

5:                                                ; preds = %2
  store volatile i32 0, ptr %3, align 8
  br label %_ZN14TaskTerminator15reset_for_reuseEv.exit

_ZN14TaskTerminator15reset_for_reuseEv.exit:      ; preds = %2, %5
  store i32 %1, ptr %0, align 8
  ret void
}